; Function Attrs: inlinehint nounwind uwtable
define internal fastcc void @pmix_bfrops_base_tma_geometry_free(ptr noundef %0, i64 noundef %1, ptr noundef %2) unnamed_addr #4 {
  %.not = icmp eq ptr %0, null
  br i1 %.not, label %pmix_tma_free.exit, label %.preheader

.preheader:                                       ; preds = %3
  %.not12 = icmp eq i64 %1, 0
  br i1 %.not12, label %._crit_edge, label %.lr.ph

.lr.ph:                                           ; preds = %.preheader
  %.not.i.i = icmp eq ptr %2, null
  %4 = getelementptr inbounds nuw i8, ptr %2, i64 40
  br i1 %.not.i.i, label %.lr.ph.split.us, label %.lr.ph.split

.lr.ph.split.us:                                  ; preds = %.lr.ph, %pmix_bfrops_base_tma_geometry_destruct.exit.us
  %.011.us = phi i64 [ %20, %pmix_bfrops_base_tma_geometry_destruct.exit.us ], [ 0, %.lr.ph ]
  %5 = getelementptr inbounds nuw %struct.pmix_geometry, ptr %0, i64 %.011.us
  %6 = getelementptr inbounds nuw i8, ptr %5, i64 8
  %7 = load ptr, ptr %6, align 8, !tbaa !130
  %.not.i9.us = icmp eq ptr %7, null
  br i1 %.not.i9.us, label %8, label %pmix_tma_free.exit.i.us

pmix_tma_free.exit.i.us:                          ; preds = %.lr.ph.split.us
  tail call void @free(ptr noundef nonnull %7) #17
  store ptr null, ptr %6, align 8, !tbaa !130
  br label %8

8:                                                ; preds = %pmix_tma_free.exit.i.us, %.lr.ph.split.us
  %9 = getelementptr inbounds nuw i8, ptr %5, i64 16
  %10 = load ptr, ptr %9, align 8, !tbaa !133
  %.not14.i.us = icmp eq ptr %10, null
  br i1 %.not14.i.us, label %11, label %pmix_tma_free.exit17.i.us

pmix_tma_free.exit17.i.us:                        ; preds = %8
  tail call void @free(ptr noundef nonnull %10) #17
  store ptr null, ptr %9, align 8, !tbaa !133
  br label %11

11:                                               ; preds = %pmix_tma_free.exit17.i.us, %8
  %12 = getelementptr inbounds nuw i8, ptr %5, i64 24
  %13 = load ptr, ptr %12, align 8, !tbaa !134
  %.not15.i.us = icmp eq ptr %13, null
  br i1 %.not15.i.us, label %pmix_bfrops_base_tma_geometry_destruct.exit.us, label %.preheader.i.i.us

.preheader.i.i.us:                                ; preds = %11
  %14 = getelementptr inbounds nuw i8, ptr %5, i64 32
  %15 = load i64, ptr %14, align 8, !tbaa !135
  %.not11.i.i.us = icmp eq i64 %15, 0
  br i1 %.not11.i.i.us, label %._crit_edge.i.i.us, label %.lr.ph.split.us.i.i.us

.lr.ph.split.us.i.i.us:                           ; preds = %.preheader.i.i.us, %pmix_bfrops_base_tma_coord_destruct.exit.us.i.i.us
  %.010.us.i.i.us = phi i64 [ %19, %pmix_bfrops_base_tma_coord_destruct.exit.us.i.i.us ], [ 0, %.preheader.i.i.us ]
  %16 = getelementptr inbounds nuw %struct.pmix_coord, ptr %13, i64 %.010.us.i.i.us
  store i8 0, ptr %16, align 8, !tbaa !106
  %17 = getelementptr inbounds nuw i8, ptr %16, i64 8
  %18 = load ptr, ptr %17, align 8, !tbaa !109
  %.not.i9.us.i.i.us = icmp eq ptr %18, null
  br i1 %.not.i9.us.i.i.us, label %pmix_bfrops_base_tma_coord_destruct.exit.us.i.i.us, label %pmix_tma_free.exit.i.us.i.i.us

pmix_tma_free.exit.i.us.i.i.us:                   ; preds = %.lr.ph.split.us.i.i.us
  tail call void @free(ptr noundef nonnull %18) #17
  tail call void @llvm.memset.p0.i64(ptr noundef nonnull align 8 dereferenceable(16) %17, i8 0, i64 16, i1 false)
  br label %pmix_bfrops_base_tma_coord_destruct.exit.us.i.i.us

pmix_bfrops_base_tma_coord_destruct.exit.us.i.i.us: ; preds = %pmix_tma_free.exit.i.us.i.i.us, %.lr.ph.split.us.i.i.us
  %19 = add nuw i64 %.010.us.i.i.us, 1
  %exitcond13.not.i.i.us = icmp eq i64 %19, %15
  br i1 %exitcond13.not.i.i.us, label %._crit_edge.i.i.us, label %.lr.ph.split.us.i.i.us, !llvm.loop !129

._crit_edge.i.i.us:                               ; preds = %pmix_bfrops_base_tma_coord_destruct.exit.us.i.i.us, %.preheader.i.i.us
  tail call void @free(ptr noundef nonnull %13) #17
  br label %pmix_bfrops_base_tma_geometry_destruct.exit.us

pmix_bfrops_base_tma_geometry_destruct.exit.us:   ; preds = %._crit_edge.i.i.us, %11
  %20 = add nuw i64 %.011.us, 1
  %exitcond14.not = icmp eq i64 %20, %1
  br i1 %exitcond14.not, label %._crit_edge, label %.lr.ph.split.us, !llvm.loop !136

._crit_edge:                                      ; preds = %pmix_bfrops_base_tma_geometry_destruct.exit, %pmix_bfrops_base_tma_geometry_destruct.exit.us, %.preheader
  %.not.i = icmp eq ptr %2, null
  br i1 %.not.i, label %24, label %21

21:                                               ; preds = %._crit_edge
  %22 = getelementptr inbounds nuw i8, ptr %2, i64 40
  %23 = load ptr, ptr %22, align 8, !tbaa !38
  tail call void %23(ptr noundef nonnull %2, ptr noundef nonnull %0) #17
  br label %pmix_tma_free.exit

24:                                               ; preds = %._crit_edge
  tail call void @free(ptr noundef nonnull %0) #17
  br label %pmix_tma_free.exit

.lr.ph.split:                                     ; preds = %.lr.ph, %pmix_bfrops_base_tma_geometry_destruct.exit
  %.011 = phi i64 [ %44, %pmix_bfrops_base_tma_geometry_destruct.exit ], [ 0, %.lr.ph ]
  %25 = getelementptr inbounds nuw %struct.pmix_geometry, ptr %0, i64 %.011
  %26 = getelementptr inbounds nuw i8, ptr %25, i64 8
  %27 = load ptr, ptr %26, align 8, !tbaa !130
  %.not.i9 = icmp eq ptr %27, null
  br i1 %.not.i9, label %29, label %pmix_tma_free.exit.i

pmix_tma_free.exit.i:                             ; preds = %.lr.ph.split
  %28 = load ptr, ptr %4, align 8, !tbaa !38
  tail call void %28(ptr noundef nonnull %2, ptr noundef nonnull %27) #17
  store ptr null, ptr %26, align 8, !tbaa !130
  br label %29

29:                                               ; preds = %pmix_tma_free.exit.i, %.lr.ph.split
  %30 = getelementptr inbounds nuw i8, ptr %25, i64 16
  %31 = load ptr, ptr %30, align 8, !tbaa !133
  %.not14.i = icmp eq ptr %31, null
  br i1 %.not14.i, label %33, label %pmix_tma_free.exit17.i

pmix_tma_free.exit17.i:                           ; preds = %29
  %32 = load ptr, ptr %4, align 8, !tbaa !38
  tail call void %32(ptr noundef nonnull %2, ptr noundef nonnull %31) #17
  store ptr null, ptr %30, align 8, !tbaa !133
  br label %33

33:                                               ; preds = %pmix_tma_free.exit17.i, %29
  %34 = getelementptr inbounds nuw i8, ptr %25, i64 24
  %35 = load ptr, ptr %34, align 8, !tbaa !134
  %.not15.i = icmp eq ptr %35, null
  br i1 %.not15.i, label %pmix_bfrops_base_tma_geometry_destruct.exit, label %.preheader.i.i

.preheader.i.i:                                   ; preds = %33
  %36 = getelementptr inbounds nuw i8, ptr %25, i64 32
  %37 = load i64, ptr %36, align 8, !tbaa !135
  %.not11.i.i = icmp eq i64 %37, 0
  br i1 %.not11.i.i, label %._crit_edge.i.i, label %.lr.ph.split.i.i

._crit_edge.i.i:                                  ; preds = %pmix_bfrops_base_tma_coord_destruct.exit.i.i, %.preheader.i.i
  %38 = load ptr, ptr %4, align 8, !tbaa !38
  tail call void %38(ptr noundef nonnull %2, ptr noundef nonnull %35) #17
  br label %pmix_bfrops_base_tma_geometry_destruct.exit

.lr.ph.split.i.i:                                 ; preds = %.preheader.i.i, %pmix_bfrops_base_tma_coord_destruct.exit.i.i
  %.010.i.i = phi i64 [ %43, %pmix_bfrops_base_tma_coord_destruct.exit.i.i ], [ 0, %.preheader.i.i ]
  %39 = getelementptr inbounds nuw %struct.pmix_coord, ptr %35, i64 %.010.i.i
  store i8 0, ptr %39, align 8, !tbaa !106
  %40 = getelementptr inbounds nuw i8, ptr %39, i64 8
  %41 = load ptr, ptr %40, align 8, !tbaa !109
  %.not.i9.i.i = icmp eq ptr %41, null
  br i1 %.not.i9.i.i, label %pmix_bfrops_base_tma_coord_destruct.exit.i.i, label %pmix_tma_free.exit.i.i.i

pmix_tma_free.exit.i.i.i:                         ; preds = %.lr.ph.split.i.i
  %42 = load ptr, ptr %4, align 8, !tbaa !38
  tail call void %42(ptr noundef nonnull %2, ptr noundef nonnull %41) #17
  tail call void @llvm.memset.p0.i64(ptr noundef nonnull align 8 dereferenceable(16) %40, i8 0, i64 16, i1 false)
  br label %pmix_bfrops_base_tma_coord_destruct.exit.i.i

pmix_bfrops_base_tma_coord_destruct.exit.i.i:     ; preds = %pmix_tma_free.exit.i.i.i, %.lr.ph.split.i.i
  %43 = add nuw i64 %.010.i.i, 1
  %exitcond.not.i.i = icmp eq i64 %43, %37
  br i1 %exitcond.not.i.i, label %._crit_edge.i.i, label %.lr.ph.split.i.i, !llvm.loop !129

pmix_bfrops_base_tma_geometry_destruct.exit:      ; preds = %33, %._crit_edge.i.i
  %44 = add nuw i64 %.011, 1
  %exitcond.not = icmp eq i64 %44, %1
  br i1 %exitcond.not, label %._crit_edge, label %.lr.ph.split, !llvm.loop !136

pmix_tma_free.exit:                               ; preds = %24, %21, %3
  ret void
}